target datalayout = "e-m:e-p270:32:32-p271:32:32-p272:64:64-i64:64-i128:128-f80:128-n8:16:32:64-S128"
target triple = "x86_64-unknown-linux-gnu"

@pch = internal global ptr null, align 8
@.str.46 = private unnamed_addr constant [17 x i8] c"division by zero\00", align 1

; Function Attrs: nounwind sspstrong uwtable
define internal i64 @expr_prod(ptr noundef %mon) #0 {
entry:
  %mon.addr = alloca ptr, align 8
  %val = alloca i64, align 8
  %val2 = alloca i64, align 8
  %op = alloca i32, align 4
  store ptr %mon, ptr %mon.addr, align 8
  %0 = load ptr, ptr %mon.addr, align 8
  %call = call i64 @expr_unary(ptr noundef %0)
  store i64 %call, ptr %val, align 8
  br label %for.cond

for.cond:                                         ; preds = %sw.epilog, %entry
  %1 = load ptr, ptr @pch, align 8
  %2 = load i8, ptr %1, align 1
  %conv = sext i8 %2 to i32
  store i32 %conv, ptr %op, align 4
  %3 = load i32, ptr %op, align 4
  %cmp = icmp ne i32 %3, 42
  br i1 %cmp, label %land.lhs.true, label %if.end

land.lhs.true:                                    ; preds = %for.cond
  %4 = load i32, ptr %op, align 4
  %cmp2 = icmp ne i32 %4, 47
  br i1 %cmp2, label %land.lhs.true4, label %if.end

land.lhs.true4:                                   ; preds = %land.lhs.true
  %5 = load i32, ptr %op, align 4
  %cmp5 = icmp ne i32 %5, 37
  br i1 %cmp5, label %if.then, label %if.end

if.then:                                          ; preds = %land.lhs.true4
  br label %for.end

if.end:                                           ; preds = %land.lhs.true4, %land.lhs.true, %for.cond
  call void @next()
  %6 = load ptr, ptr %mon.addr, align 8
  %call7 = call i64 @expr_unary(ptr noundef %6)
  store i64 %call7, ptr %val2, align 8
  %7 = load i32, ptr %op, align 4
  switch i32 %7, label %sw.default [
    i32 42, label %sw.bb
    i32 47, label %sw.bb8
    i32 37, label %sw.bb8
  ]

sw.default:                                       ; preds = %if.end
  br label %sw.bb

sw.bb:                                            ; preds = %sw.default, %if.end
  %8 = load i64, ptr %val2, align 8
  %9 = load i64, ptr %val, align 8
  %mul = mul i64 %9, %8
  store i64 %mul, ptr %val, align 8
  br label %sw.epilog

sw.bb8:                                           ; preds = %if.end, %if.end
  %10 = load i64, ptr %val2, align 8
  %cmp9 = icmp eq i64 %10, 0
  br i1 %cmp9, label %if.then11, label %if.end12

if.then11:                                        ; preds = %sw.bb8
  %11 = load ptr, ptr %mon.addr, align 8
  call void (ptr, ptr, ...) @expr_error(ptr noundef %11, ptr noundef @.str.46) #17
  unreachable

if.end12:                                         ; preds = %sw.bb8
  %12 = load i32, ptr %op, align 4
  %cmp13 = icmp eq i32 %12, 47
  br i1 %cmp13, label %if.then15, label %if.else

if.then15:                                        ; preds = %if.end12
  %13 = load i64, ptr %val2, align 8
  %14 = load i64, ptr %val, align 8
  %div = sdiv i64 %14, %13
  store i64 %div, ptr %val, align 8
  br label %if.end16

if.else:                                          ; preds = %if.end12
  %15 = load i64, ptr %val2, align 8
  %16 = load i64, ptr %val, align 8
  %rem = srem i64 %16, %15
  store i64 %rem, ptr %val, align 8
  br label %if.end16

if.end16:                                         ; preds = %if.else, %if.then15
  br label %sw.epilog

sw.epilog:                                        ; preds = %if.end16, %sw.bb
  br label %for.cond

for.end:                                          ; preds = %if.then
  %17 = load i64, ptr %val, align 8
  ret i64 %17
}

; Function Attrs: nounwind sspstrong uwtable
define internal void @next() #0 {
entry:
  %0 = load ptr, ptr @pch, align 8
  %1 = load i8, ptr %0, align 1
  %conv = sext i8 %1 to i32
  %cmp = icmp ne i32 %conv, 0
  br i1 %cmp, label %if.then, label %if.end

if.then:                                          ; preds = %entry
  %2 = load ptr, ptr @pch, align 8
  %incdec.ptr = getelementptr i8, ptr %2, i32 1
  store ptr %incdec.ptr, ptr @pch, align 8
  br label %while.cond

while.cond:                                       ; preds = %while.body, %if.then
  %call = call ptr @__ctype_b_loc() #14
  %3 = load ptr, ptr %call, align 8
  %4 = load ptr, ptr @pch, align 8
  %5 = load i8, ptr %4, align 1
  %conv2 = zext i8 %5 to i32
  %idxprom = sext i32 %conv2 to i64
  %arrayidx = getelementptr i16, ptr %3, i64 %idxprom
  %6 = load i16, ptr %arrayidx, align 2
  %conv3 = zext i16 %6 to i32
  %and = and i32 %conv3, 8192
  %tobool = icmp ne i32 %and, 0
  br i1 %tobool, label %while.body, label %while.end

while.body:                                       ; preds = %while.cond
  %7 = load ptr, ptr @pch, align 8
  %incdec.ptr4 = getelementptr i8, ptr %7, i32 1
  store ptr %incdec.ptr4, ptr @pch, align 8
  br label %while.cond, !llvm.loop !39

while.end:                                        ; preds = %while.cond
  br label %if.end

if.end:                                           ; preds = %while.end, %entry
  ret void
}

; Function Attrs: nounwind sspstrong uwtable
define internal i64 @expr_logic(ptr noundef %mon) #0 {
entry:
  %mon.addr = alloca ptr, align 8
  %val = alloca i64, align 8
  %val2 = alloca i64, align 8
  %op = alloca i32, align 4
  store ptr %mon, ptr %mon.addr, align 8
  %0 = load ptr, ptr %mon.addr, align 8
  %call = call i64 @expr_prod(ptr noundef %0)
  store i64 %call, ptr %val, align 8
  br label %for.cond

for.cond:                                         ; preds = %sw.epilog, %entry
  %1 = load ptr, ptr @pch, align 8
  %2 = load i8, ptr %1, align 1
  %conv = sext i8 %2 to i32
  store i32 %conv, ptr %op, align 4
  %3 = load i32, ptr %op, align 4
  %cmp = icmp ne i32 %3, 38
  br i1 %cmp, label %land.lhs.true, label %if.end

land.lhs.true:                                    ; preds = %for.cond
  %4 = load i32, ptr %op, align 4
  %cmp2 = icmp ne i32 %4, 124
  br i1 %cmp2, label %land.lhs.true4, label %if.end

land.lhs.true4:                                   ; preds = %land.lhs.true
  %5 = load i32, ptr %op, align 4
  %cmp5 = icmp ne i32 %5, 94
  br i1 %cmp5, label %if.then, label %if.end

if.then:                                          ; preds = %land.lhs.true4
  br label %for.end

if.end:                                           ; preds = %land.lhs.true4, %land.lhs.true, %for.cond
  call void @next()
  %6 = load ptr, ptr %mon.addr, align 8
  %call7 = call i64 @expr_prod(ptr noundef %6)
  store i64 %call7, ptr %val2, align 8
  %7 = load i32, ptr %op, align 4
  switch i32 %7, label %sw.default [
    i32 38, label %sw.bb
    i32 124, label %sw.bb8
    i32 94, label %sw.bb9
  ]

sw.default:                                       ; preds = %if.end
  br label %sw.bb

sw.bb:                                            ; preds = %sw.default, %if.end
  %8 = load i64, ptr %val2, align 8
  %9 = load i64, ptr %val, align 8
  %and = and i64 %9, %8
  store i64 %and, ptr %val, align 8
  br label %sw.epilog

sw.bb8:                                           ; preds = %if.end
  %10 = load i64, ptr %val2, align 8
  %11 = load i64, ptr %val, align 8
  %or = or i64 %11, %10
  store i64 %or, ptr %val, align 8
  br label %sw.epilog

sw.bb9:                                           ; preds = %if.end
  %12 = load i64, ptr %val2, align 8
  %13 = load i64, ptr %val, align 8
  %xor = xor i64 %13, %12
  store i64 %xor, ptr %val, align 8
  br label %sw.epilog

sw.epilog:                                        ; preds = %sw.bb9, %sw.bb8, %sw.bb
  br label %for.cond

for.end:                                          ; preds = %if.then
  %14 = load i64, ptr %val, align 8
  ret i64 %14
}

; Function Attrs: nounwind sspstrong uwtable
define internal i64 @expr_sum(ptr noundef %mon) #0 {
entry:
  %mon.addr = alloca ptr, align 8
  %val = alloca i64, align 8
  %val2 = alloca i64, align 8
  %op = alloca i32, align 4
  store ptr %mon, ptr %mon.addr, align 8
  %0 = load ptr, ptr %mon.addr, align 8
  %call = call i64 @expr_logic(ptr noundef %0)
  store i64 %call, ptr %val, align 8
  br label %for.cond

for.cond:                                         ; preds = %if.end8, %entry
  %1 = load ptr, ptr @pch, align 8
  %2 = load i8, ptr %1, align 1
  %conv = sext i8 %2 to i32
  store i32 %conv, ptr %op, align 4
  %3 = load i32, ptr %op, align 4
  %cmp = icmp ne i32 %3, 43
  br i1 %cmp, label %land.lhs.true, label %if.end

land.lhs.true:                                    ; preds = %for.cond
  %4 = load i32, ptr %op, align 4
  %cmp2 = icmp ne i32 %4, 45
  br i1 %cmp2, label %if.then, label %if.end

if.then:                                          ; preds = %land.lhs.true
  br label %for.end

if.end:                                           ; preds = %land.lhs.true, %for.cond
  call void @next()
  %5 = load ptr, ptr %mon.addr, align 8
  %call4 = call i64 @expr_logic(ptr noundef %5)
  store i64 %call4, ptr %val2, align 8
  %6 = load i32, ptr %op, align 4
  %cmp5 = icmp eq i32 %6, 43
  br i1 %cmp5, label %if.then7, label %if.else

if.then7:                                         ; preds = %if.end
  %7 = load i64, ptr %val2, align 8
  %8 = load i64, ptr %val, align 8
  %add = add i64 %8, %7
  store i64 %add, ptr %val, align 8
  br label %if.end8

if.else:                                          ; preds = %if.end
  %9 = load i64, ptr %val2, align 8
  %10 = load i64, ptr %val, align 8
  %sub = sub i64 %10, %9
  store i64 %sub, ptr %val, align 8
  br label %if.end8

if.end8:                                          ; preds = %if.else, %if.then7
  br label %for.cond

for.end:                                          ; preds = %if.then
  %11 = load i64, ptr %val, align 8
  ret i64 %11
}